; Function Attrs: mustprogress nounwind uwtable
define hidden void @_ZN15PipelineBuilder16setStopCriterionESt10unique_ptrI13StopCriterionSt14default_deleteIS1_EE(ptr noundef nonnull readonly align 8 captures(none) dereferenceable(8) %0, ptr noundef captures(none) %1) local_unnamed_addr #5 align 2 personality ptr @__gxx_personality_v0 {
  %3 = load ptr, ptr %0, align 8, !tbaa !347
  %4 = getelementptr inbounds nuw i8, ptr %3, i64 264
  %5 = load ptr, ptr %1, align 8, !tbaa !122
  store ptr null, ptr %1, align 8, !tbaa !122
  %6 = load ptr, ptr %4, align 8, !tbaa !122
  store ptr %5, ptr %4, align 8, !tbaa !122
  %.not.i.i.i.i = icmp eq ptr %6, null
  br i1 %.not.i.i.i.i, label %_ZNSt10unique_ptrI13StopCriterionSt14default_deleteIS0_EEaSEOS3_.exit, label %_ZNKSt14default_deleteI13StopCriterionEclEPS0_.exit.i.i.i.i

_ZNKSt14default_deleteI13StopCriterionEclEPS0_.exit.i.i.i.i: ; preds = %2
  %7 = load ptr, ptr %6, align 8, !tbaa !36
  %8 = getelementptr inbounds nuw i8, ptr %7, i64 32
  %9 = load ptr, ptr %8, align 8
  tail call void %9(ptr noundef nonnull align 8 dereferenceable(8) %6) #37
  br label %_ZNSt10unique_ptrI13StopCriterionSt14default_deleteIS0_EEaSEOS3_.exit

_ZNSt10unique_ptrI13StopCriterionSt14default_deleteIS0_EEaSEOS3_.exit: ; preds = %2, %_ZNKSt14default_deleteI13StopCriterionEclEPS0_.exit.i.i.i.i
  ret void
}